target datalayout = "e-m:e-p270:32:32-p271:32:32-p272:64:64-i64:64-i128:128-f80:128-n8:16:32:64-S128"
target triple = "x86_64-pc-linux-gnu"

%struct.mpd_t = type { i8, i64, i64, i64, i64, ptr }

@MPD_MINALLOC = external hidden global i64, align 8

; Function Attrs: alwaysinline nounwind uwtable
define hidden i32 @mpd_isstatic_data(ptr noundef %0) #1 {
  %2 = alloca ptr, align 8
  store ptr %0, ptr %2, align 8, !tbaa !7
  %3 = load ptr, ptr %2, align 8, !tbaa !7
  %4 = getelementptr inbounds nuw %struct.mpd_t, ptr %3, i32 0, i32 0
  %5 = load i8, ptr %4, align 8, !tbaa !25
  %6 = zext i8 %5 to i32
  %7 = and i32 %6, 32
  ret i32 %7
}

; Function Attrs: alwaysinline nounwind uwtable
define hidden void @mpd_set_positive(ptr noundef %0) #1 {
  %2 = alloca ptr, align 8
  store ptr %0, ptr %2, align 8, !tbaa !7
  %3 = load ptr, ptr %2, align 8, !tbaa !7
  %4 = getelementptr inbounds nuw %struct.mpd_t, ptr %3, i32 0, i32 0
  %5 = load i8, ptr %4, align 8, !tbaa !25
  %6 = zext i8 %5 to i32
  %7 = and i32 %6, -2
  %8 = trunc i32 %7 to i8
  store i8 %8, ptr %4, align 8, !tbaa !25
  ret void
}

; Function Attrs: alwaysinline nounwind uwtable
define hidden void @mpd_set_qnan(ptr noundef %0) #1 {
  %2 = alloca ptr, align 8
  store ptr %0, ptr %2, align 8, !tbaa !7
  %3 = load ptr, ptr %2, align 8, !tbaa !7
  %4 = getelementptr inbounds nuw %struct.mpd_t, ptr %3, i32 0, i32 0
  %5 = load i8, ptr %4, align 8, !tbaa !25
  %6 = zext i8 %5 to i32
  %7 = and i32 %6, -15
  %8 = trunc i32 %7 to i8
  store i8 %8, ptr %4, align 8, !tbaa !25
  %9 = load ptr, ptr %2, align 8, !tbaa !7
  %10 = getelementptr inbounds nuw %struct.mpd_t, ptr %9, i32 0, i32 0
  %11 = load i8, ptr %10, align 8, !tbaa !25
  %12 = zext i8 %11 to i32
  %13 = or i32 %12, 4
  %14 = trunc i32 %13 to i8
  store i8 %14, ptr %10, align 8, !tbaa !25
  ret void
}

; Function Attrs: alwaysinline nounwind uwtable
define hidden void @mpd_minalloc(ptr noundef %0) #1 {
  %2 = alloca ptr, align 8
  %3 = alloca i8, align 1
  store ptr %0, ptr %2, align 8, !tbaa !7
  %4 = load ptr, ptr %2, align 8, !tbaa !7
  %5 = call i32 @mpd_isstatic_data(ptr noundef %4)
  %6 = icmp ne i32 %5, 0
  br i1 %6, label %28, label %7

7:                                                ; preds = %1
  %8 = load ptr, ptr %2, align 8, !tbaa !7
  %9 = getelementptr inbounds nuw %struct.mpd_t, ptr %8, i32 0, i32 4
  %10 = load i64, ptr %9, align 8, !tbaa !31
  %11 = load i64, ptr @MPD_MINALLOC, align 8, !tbaa !3
  %12 = icmp sgt i64 %10, %11
  br i1 %12, label %13, label %28

13:                                               ; preds = %7
  call void @llvm.lifetime.start.p0(i64 1, ptr %3) #10
  store i8 0, ptr %3, align 1, !tbaa !32
  %14 = load ptr, ptr %2, align 8, !tbaa !7
  %15 = getelementptr inbounds nuw %struct.mpd_t, ptr %14, i32 0, i32 5
  %16 = load ptr, ptr %15, align 8, !tbaa !21
  %17 = load i64, ptr @MPD_MINALLOC, align 8, !tbaa !3
  %18 = call ptr @mpd_realloc(ptr noundef %16, i64 noundef %17, i64 noundef 8, ptr noundef %3)
  %19 = load ptr, ptr %2, align 8, !tbaa !7
  %20 = getelementptr inbounds nuw %struct.mpd_t, ptr %19, i32 0, i32 5
  store ptr %18, ptr %20, align 8, !tbaa !21
  %21 = load i8, ptr %3, align 1, !tbaa !32
  %22 = icmp ne i8 %21, 0
  br i1 %22, label %27, label %23

23:                                               ; preds = %13
  %24 = load i64, ptr @MPD_MINALLOC, align 8, !tbaa !3
  %25 = load ptr, ptr %2, align 8, !tbaa !7
  %26 = getelementptr inbounds nuw %struct.mpd_t, ptr %25, i32 0, i32 4
  store i64 %24, ptr %26, align 8, !tbaa !31
  br label %27

27:                                               ; preds = %23, %13
  call void @llvm.lifetime.end.p0(i64 1, ptr %3) #10
  br label %28

28:                                               ; preds = %27, %7, %1
  ret void
}

; Function Attrs: nounwind uwtable
define hidden void @mpd_setspecial(ptr noundef %0, i8 noundef zeroext %1, i8 noundef zeroext %2) #0 {
  %4 = alloca ptr, align 8
  %5 = alloca i8, align 1
  %6 = alloca i8, align 1
  store ptr %0, ptr %4, align 8, !tbaa !7
  store i8 %1, ptr %5, align 1, !tbaa !32
  store i8 %2, ptr %6, align 1, !tbaa !32
  %7 = load ptr, ptr %4, align 8, !tbaa !7
  call void @mpd_minalloc(ptr noundef %7)
  %8 = load ptr, ptr %4, align 8, !tbaa !7
  %9 = getelementptr inbounds nuw %struct.mpd_t, ptr %8, i32 0, i32 0
  %10 = load i8, ptr %9, align 8, !tbaa !25
  %11 = zext i8 %10 to i32
  %12 = and i32 %11, -16
  %13 = trunc i32 %12 to i8
  store i8 %13, ptr %9, align 8, !tbaa !25
  %14 = load i8, ptr %5, align 1, !tbaa !32
  %15 = zext i8 %14 to i32
  %16 = load i8, ptr %6, align 1, !tbaa !32
  %17 = zext i8 %16 to i32
  %18 = or i32 %15, %17
  %19 = load ptr, ptr %4, align 8, !tbaa !7
  %20 = getelementptr inbounds nuw %struct.mpd_t, ptr %19, i32 0, i32 0
  %21 = load i8, ptr %20, align 8, !tbaa !25
  %22 = zext i8 %21 to i32
  %23 = or i32 %22, %18
  %24 = trunc i32 %23 to i8
  store i8 %24, ptr %20, align 8, !tbaa !25
  %25 = load ptr, ptr %4, align 8, !tbaa !7
  %26 = getelementptr inbounds nuw %struct.mpd_t, ptr %25, i32 0, i32 3
  store i64 0, ptr %26, align 8, !tbaa !22
  %27 = load ptr, ptr %4, align 8, !tbaa !7
  %28 = getelementptr inbounds nuw %struct.mpd_t, ptr %27, i32 0, i32 2
  store i64 0, ptr %28, align 8, !tbaa !13
  %29 = load ptr, ptr %4, align 8, !tbaa !7
  %30 = getelementptr inbounds nuw %struct.mpd_t, ptr %29, i32 0, i32 1
  store i64 0, ptr %30, align 8, !tbaa !10
  ret void
}

; Function Attrs: nounwind uwtable
define hidden void @mpd_seterror(ptr noundef %0, i32 noundef %1, ptr noundef %2) #0 {
  %4 = alloca ptr, align 8
  %5 = alloca i32, align 4
  %6 = alloca ptr, align 8
  store ptr %0, ptr %4, align 8, !tbaa !7
  store i32 %1, ptr %5, align 4, !tbaa !23
  store ptr %2, ptr %6, align 8, !tbaa !29
  %7 = load ptr, ptr %4, align 8, !tbaa !7
  call void @mpd_minalloc(ptr noundef %7)
  %8 = load ptr, ptr %4, align 8, !tbaa !7
  call void @mpd_set_qnan(ptr noundef %8)
  %9 = load ptr, ptr %4, align 8, !tbaa !7
  call void @mpd_set_positive(ptr noundef %9)
  %10 = load ptr, ptr %4, align 8, !tbaa !7
  %11 = getelementptr inbounds nuw %struct.mpd_t, ptr %10, i32 0, i32 3
  store i64 0, ptr %11, align 8, !tbaa !22
  %12 = load ptr, ptr %4, align 8, !tbaa !7
  %13 = getelementptr inbounds nuw %struct.mpd_t, ptr %12, i32 0, i32 2
  store i64 0, ptr %13, align 8, !tbaa !13
  %14 = load ptr, ptr %4, align 8, !tbaa !7
  %15 = getelementptr inbounds nuw %struct.mpd_t, ptr %14, i32 0, i32 1
  store i64 0, ptr %15, align 8, !tbaa !10
  %16 = load i32, ptr %5, align 4, !tbaa !23
  %17 = load ptr, ptr %6, align 8, !tbaa !29
  %18 = load i32, ptr %17, align 4, !tbaa !23
  %19 = or i32 %18, %16
  store i32 %19, ptr %17, align 4, !tbaa !23
  ret void
}

; Function Attrs: alwaysinline nounwind uwtable
define hidden zeroext i8 @mpd_sign(ptr noundef %0) #1 {
  %2 = alloca ptr, align 8
  store ptr %0, ptr %2, align 8, !tbaa !7
  %3 = load ptr, ptr %2, align 8, !tbaa !7
  %4 = getelementptr inbounds nuw %struct.mpd_t, ptr %3, i32 0, i32 0
  %5 = load i8, ptr %4, align 8, !tbaa !25
  %6 = zext i8 %5 to i32
  %7 = and i32 %6, 1
  %8 = trunc i32 %7 to i8
  ret i8 %8
}

; Function Attrs: alwaysinline nounwind uwtable
define hidden i32 @mpd_isinfinite(ptr noundef %0) #1 {
  %2 = alloca ptr, align 8
  store ptr %0, ptr %2, align 8, !tbaa !7
  %3 = load ptr, ptr %2, align 8, !tbaa !7
  %4 = getelementptr inbounds nuw %struct.mpd_t, ptr %3, i32 0, i32 0
  %5 = load i8, ptr %4, align 8, !tbaa !25
  %6 = zext i8 %5 to i32
  %7 = and i32 %6, 2
  ret i32 %7
}

; Function Attrs: nounwind uwtable
define internal void @_mpd_qaddsub_inf(ptr noundef %0, ptr noundef %1, ptr noundef %2, i8 noundef zeroext %3, ptr noundef %4) #0 {
  %6 = alloca ptr, align 8
  %7 = alloca ptr, align 8
  %8 = alloca ptr, align 8
  %9 = alloca i8, align 1
  %10 = alloca ptr, align 8
  store ptr %0, ptr %6, align 8, !tbaa !7
  store ptr %1, ptr %7, align 8, !tbaa !7
  store ptr %2, ptr %8, align 8, !tbaa !7
  store i8 %3, ptr %9, align 1, !tbaa !32
  store ptr %4, ptr %10, align 8, !tbaa !29
  %11 = load ptr, ptr %7, align 8, !tbaa !7
  %12 = call i32 @mpd_isinfinite(ptr noundef %11)
  %13 = icmp ne i32 %12, 0
  br i1 %13, label %14, label %33

14:                                               ; preds = %5
  %15 = load ptr, ptr %7, align 8, !tbaa !7
  %16 = call zeroext i8 @mpd_sign(ptr noundef %15)
  %17 = zext i8 %16 to i32
  %18 = load i8, ptr %9, align 1, !tbaa !32
  %19 = zext i8 %18 to i32
  %20 = icmp ne i32 %17, %19
  br i1 %20, label %21, label %28

21:                                               ; preds = %14
  %22 = load ptr, ptr %8, align 8, !tbaa !7
  %23 = call i32 @mpd_isinfinite(ptr noundef %22)
  %24 = icmp ne i32 %23, 0
  br i1 %24, label %25, label %28

25:                                               ; preds = %21
  %26 = load ptr, ptr %6, align 8, !tbaa !7
  %27 = load ptr, ptr %10, align 8, !tbaa !29
  call void @mpd_seterror(ptr noundef %26, i32 noundef 256, ptr noundef %27)
  br label %32

28:                                               ; preds = %21, %14
  %29 = load ptr, ptr %6, align 8, !tbaa !7
  %30 = load ptr, ptr %7, align 8, !tbaa !7
  %31 = call zeroext i8 @mpd_sign(ptr noundef %30)
  call void @mpd_setspecial(ptr noundef %29, i8 noundef zeroext %31, i8 noundef zeroext 2)
  br label %32

32:                                               ; preds = %28, %25
  br label %36

33:                                               ; preds = %5
  %34 = load ptr, ptr %6, align 8, !tbaa !7
  %35 = load i8, ptr %9, align 1, !tbaa !32
  call void @mpd_setspecial(ptr noundef %34, i8 noundef zeroext %35, i8 noundef zeroext 2)
  br label %36

36:                                               ; preds = %33, %32
  ret void
}