; Function Attrs: nounwind uwtable
define internal fastcc void @_mpd_qaddsub_inf(ptr noundef captures(none) initializes((8, 32)) %0, i8 %.0.val, ptr noundef readonly captures(none) %1, i8 noundef zeroext range(i8 0, 2) %2, ptr noundef captures(none) %3) unnamed_addr #10 {
  %5 = alloca i8, align 1
  %6 = alloca i8, align 1
  %7 = alloca i8, align 1
  %8 = and i8 %.0.val, 2
  %.not = icmp eq i8 %8, 0
  br i1 %.not, label %57, label %9

9:                                                ; preds = %4
  %10 = and i8 %.0.val, 1
  %.not9 = icmp eq i8 %10, %2
  br i1 %.not9, label %36, label %11

11:                                               ; preds = %9
  %12 = load i8, ptr %1, align 8, !tbaa !19
  %13 = and i8 %12, 2
  %.not10 = icmp eq i8 %13, 0
  br i1 %.not10, label %36, label %14

14:                                               ; preds = %11
  %15 = load i8, ptr %0, align 8, !tbaa !19
  %16 = and i8 %15, 32
  %.not.i.i = icmp eq i8 %16, 0
  br i1 %.not.i.i, label %17, label %mpd_seterror.exit

17:                                               ; preds = %14
  %18 = getelementptr inbounds nuw i8, ptr %0, i64 32
  %19 = load i64, ptr %18, align 8, !tbaa !21
  %20 = load i64, ptr @MPD_MINALLOC, align 8, !tbaa !3
  %21 = icmp sgt i64 %19, %20
  br i1 %21, label %22, label %mpd_seterror.exit

22:                                               ; preds = %17
  call void @llvm.lifetime.start.p0(i64 1, ptr nonnull %7) #33
  store i8 0, ptr %7, align 1, !tbaa !22
  %23 = getelementptr inbounds nuw i8, ptr %0, i64 40
  %24 = load ptr, ptr %23, align 8, !tbaa !17
  %25 = call ptr @mpd_realloc(ptr noundef %24, i64 noundef %20, i64 noundef 8, ptr noundef nonnull %7) #33
  store ptr %25, ptr %23, align 8, !tbaa !17
  %26 = load i8, ptr %7, align 1, !tbaa !22
  %.not5.i.i = icmp eq i8 %26, 0
  br i1 %.not5.i.i, label %27, label %29

27:                                               ; preds = %22
  %28 = load i64, ptr @MPD_MINALLOC, align 8, !tbaa !3
  store i64 %28, ptr %18, align 8, !tbaa !21
  br label %29

29:                                               ; preds = %27, %22
  call void @llvm.lifetime.end.p0(i64 1, ptr nonnull %7) #33
  %.pre.i = load i8, ptr %0, align 8, !tbaa !19
  br label %mpd_seterror.exit

mpd_seterror.exit:                                ; preds = %14, %17, %29
  %30 = phi i8 [ %15, %14 ], [ %15, %17 ], [ %.pre.i, %29 ]
  %31 = and i8 %30, -16
  %32 = or disjoint i8 %31, 4
  store i8 %32, ptr %0, align 8, !tbaa !19
  %33 = getelementptr inbounds nuw i8, ptr %0, i64 8
  call void @llvm.memset.p0.i64(ptr noundef nonnull align 8 dereferenceable(24) %33, i8 0, i64 24, i1 false)
  %34 = load i32, ptr %3, align 4, !tbaa !23
  %35 = or i32 %34, 256
  store i32 %35, ptr %3, align 4, !tbaa !23
  br label %78

36:                                               ; preds = %11, %9
  %37 = load i8, ptr %0, align 8, !tbaa !19
  %38 = and i8 %37, 32
  %.not.i.i11 = icmp eq i8 %38, 0
  br i1 %.not.i.i11, label %39, label %mpd_setspecial.exit

39:                                               ; preds = %36
  %40 = getelementptr inbounds nuw i8, ptr %0, i64 32
  %41 = load i64, ptr %40, align 8, !tbaa !21
  %42 = load i64, ptr @MPD_MINALLOC, align 8, !tbaa !3
  %43 = icmp sgt i64 %41, %42
  br i1 %43, label %44, label %mpd_setspecial.exit

44:                                               ; preds = %39
  call void @llvm.lifetime.start.p0(i64 1, ptr nonnull %6) #33
  store i8 0, ptr %6, align 1, !tbaa !22
  %45 = getelementptr inbounds nuw i8, ptr %0, i64 40
  %46 = load ptr, ptr %45, align 8, !tbaa !17
  %47 = call ptr @mpd_realloc(ptr noundef %46, i64 noundef %42, i64 noundef 8, ptr noundef nonnull %6) #33
  store ptr %47, ptr %45, align 8, !tbaa !17
  %48 = load i8, ptr %6, align 1, !tbaa !22
  %.not5.i.i12 = icmp eq i8 %48, 0
  br i1 %.not5.i.i12, label %49, label %51

49:                                               ; preds = %44
  %50 = load i64, ptr @MPD_MINALLOC, align 8, !tbaa !3
  store i64 %50, ptr %40, align 8, !tbaa !21
  br label %51

51:                                               ; preds = %49, %44
  call void @llvm.lifetime.end.p0(i64 1, ptr nonnull %6) #33
  %.pre.i13 = load i8, ptr %0, align 8, !tbaa !19
  br label %mpd_setspecial.exit

mpd_setspecial.exit:                              ; preds = %36, %39, %51
  %52 = phi i8 [ %37, %36 ], [ %37, %39 ], [ %.pre.i13, %51 ]
  %53 = and i8 %52, -16
  %54 = or disjoint i8 %10, %53
  %55 = or disjoint i8 %54, 2
  store i8 %55, ptr %0, align 8, !tbaa !19
  %56 = getelementptr inbounds nuw i8, ptr %0, i64 8
  call void @llvm.memset.p0.i64(ptr noundef nonnull align 8 dereferenceable(24) %56, i8 0, i64 24, i1 false)
  br label %78

57:                                               ; preds = %4
  %58 = load i8, ptr %0, align 8, !tbaa !19
  %59 = and i8 %58, 32
  %.not.i.i14 = icmp eq i8 %59, 0
  br i1 %.not.i.i14, label %60, label %mpd_setspecial.exit17

60:                                               ; preds = %57
  %61 = getelementptr inbounds nuw i8, ptr %0, i64 32
  %62 = load i64, ptr %61, align 8, !tbaa !21
  %63 = load i64, ptr @MPD_MINALLOC, align 8, !tbaa !3
  %64 = icmp sgt i64 %62, %63
  br i1 %64, label %65, label %mpd_setspecial.exit17

65:                                               ; preds = %60
  call void @llvm.lifetime.start.p0(i64 1, ptr nonnull %5) #33
  store i8 0, ptr %5, align 1, !tbaa !22
  %66 = getelementptr inbounds nuw i8, ptr %0, i64 40
  %67 = load ptr, ptr %66, align 8, !tbaa !17
  %68 = call ptr @mpd_realloc(ptr noundef %67, i64 noundef %63, i64 noundef 8, ptr noundef nonnull %5) #33
  store ptr %68, ptr %66, align 8, !tbaa !17
  %69 = load i8, ptr %5, align 1, !tbaa !22
  %.not5.i.i15 = icmp eq i8 %69, 0
  br i1 %.not5.i.i15, label %70, label %72

70:                                               ; preds = %65
  %71 = load i64, ptr @MPD_MINALLOC, align 8, !tbaa !3
  store i64 %71, ptr %61, align 8, !tbaa !21
  br label %72

72:                                               ; preds = %70, %65
  call void @llvm.lifetime.end.p0(i64 1, ptr nonnull %5) #33
  %.pre.i16 = load i8, ptr %0, align 8, !tbaa !19
  br label %mpd_setspecial.exit17

mpd_setspecial.exit17:                            ; preds = %57, %60, %72
  %73 = phi i8 [ %58, %57 ], [ %58, %60 ], [ %.pre.i16, %72 ]
  %74 = and i8 %73, -16
  %75 = or disjoint i8 %2, %74
  %76 = or disjoint i8 %75, 2
  store i8 %76, ptr %0, align 8, !tbaa !19
  %77 = getelementptr inbounds nuw i8, ptr %0, i64 8
  call void @llvm.memset.p0.i64(ptr noundef nonnull align 8 dereferenceable(24) %77, i8 0, i64 24, i1 false)
  br label %78

78:                                               ; preds = %mpd_seterror.exit, %mpd_setspecial.exit, %mpd_setspecial.exit17
  ret void
}